; Function Attrs: mustprogress nounwind uwtable
define dso_local void @_ZN4node9AsyncWrapC2EPNS_11EnvironmentEN2v85LocalINS3_6ObjectEEE(ptr noundef nonnull align 8 dereferenceable(56) %this, ptr nocapture noundef readonly %env, ptr %object.coerce) unnamed_addr #3 align 2 {
entry:
  %principal_realm_.i.i = getelementptr inbounds i8, ptr %env, i64 2728
  %0 = load ptr, ptr %principal_realm_.i.i, align 8
  tail call void @_ZN4node10BaseObjectC2EPNS_5RealmEN2v85LocalINS3_6ObjectEEE(ptr noundef nonnull align 8 dereferenceable(32) %this, ptr noundef %0, ptr %object.coerce) #19
  store ptr getelementptr inbounds ({ [20 x ptr] }, ptr @_ZTVN4node9AsyncWrapE, i64 0, i32 0, i64 2), ptr %this, align 8
  %provider_type_ = getelementptr inbounds i8, ptr %this, i64 32
  store i32 0, ptr %provider_type_, align 8
  %init_hook_ran_ = getelementptr inbounds i8, ptr %this, i64 36
  store i8 0, ptr %init_hook_ran_, align 4
  %async_id_ = getelementptr inbounds i8, ptr %this, i64 40
  store <2 x double> <double -1.000000e+00, double -1.000000e+00>, ptr %async_id_, align 8
  ret void
}